target datalayout = "e-m:e-p270:32:32-p271:32:32-p272:64:64-i64:64-i128:128-f80:128-n8:16:32:64-S128"
target triple = "x86_64-unknown-linux-gnu"

%"class.std::set.11" = type { %"class.std::_Rb_tree.12" }
%"class.std::_Rb_tree.12" = type { %"struct.std::_Rb_tree<QuantLib::Observer *, QuantLib::Observer *, std::_Identity<QuantLib::Observer *>, std::less<QuantLib::Observer *>>::_Rb_tree_impl" }
%"struct.std::_Rb_tree<QuantLib::Observer *, QuantLib::Observer *, std::_Identity<QuantLib::Observer *>, std::less<QuantLib::Observer *>>::_Rb_tree_impl" = type { [8 x i8], %"struct.std::_Rb_tree_header" }
%"struct.std::_Rb_tree_header" = type { %"struct.std::_Rb_tree_node_base", i64 }
%"struct.std::_Rb_tree_node_base" = type { i32, ptr, ptr, ptr }
%"class.boost::detail::shared_count" = type { ptr }
%"class.QuantLib::Array" = type { %"class.std::unique_ptr", i64 }
%"class.std::unique_ptr" = type { %"struct.std::__uniq_ptr_data" }
%"struct.std::__uniq_ptr_data" = type { %"class.std::__uniq_ptr_impl" }
%"class.std::__uniq_ptr_impl" = type { %"class.std::tuple" }
%"class.std::tuple" = type { %"struct.std::_Tuple_impl" }
%"struct.std::_Tuple_impl" = type { %"struct.std::_Head_base.1" }
%"struct.std::_Head_base.1" = type { ptr }
%"class.std::set" = type { %"class.std::_Rb_tree" }
%"class.std::_Rb_tree" = type { %"struct.std::_Rb_tree<boost::shared_ptr<QuantLib::Observable>, boost::shared_ptr<QuantLib::Observable>, std::_Identity<boost::shared_ptr<QuantLib::Observable>>, std::less<boost::shared_ptr<QuantLib::Observable>>>::_Rb_tree_impl" }
%"struct.std::_Rb_tree<boost::shared_ptr<QuantLib::Observable>, boost::shared_ptr<QuantLib::Observable>, std::_Identity<boost::shared_ptr<QuantLib::Observable>>, std::less<boost::shared_ptr<QuantLib::Observable>>>::_Rb_tree_impl" = type { [8 x i8], %"struct.std::_Rb_tree_header" }
%"class.QuantLib::Observable" = type { ptr, %"class.std::set.11" }
%"class.QuantLib::Parameter" = type { %"class.boost::shared_ptr.35", %"class.QuantLib::Array", %"class.QuantLib::Constraint" }
%"class.boost::shared_ptr.35" = type { ptr, %"class.boost::detail::shared_count" }
%"class.QuantLib::Constraint" = type { %"class.boost::shared_ptr.36" }
%"class.boost::shared_ptr.36" = type { ptr, %"class.boost::detail::shared_count" }
%"class.QuantLib::CoxIngersollRoss" = type { %"class.QuantLib::OneFactorAffineModel.base", ptr, ptr, ptr, ptr, %"class.QuantLib::Observer", %"class.QuantLib::Observable" }
%"class.QuantLib::OneFactorAffineModel.base" = type { %"class.QuantLib::OneFactorModel.base", %"class.QuantLib::AffineModel.base" }
%"class.QuantLib::OneFactorModel.base" = type { %"class.QuantLib::ShortRateModel.base" }
%"class.QuantLib::ShortRateModel.base" = type { %"class.QuantLib::CalibratedModel.base" }
%"class.QuantLib::CalibratedModel.base" = type <{ ptr, %"class.std::vector.29", %"class.boost::shared_ptr.34", i32, [4 x i8], %"class.QuantLib::Array", i32 }>
%"class.std::vector.29" = type { %"struct.std::_Vector_base.30" }
%"struct.std::_Vector_base.30" = type { %"struct.std::_Vector_base<QuantLib::Parameter, std::allocator<QuantLib::Parameter>>::_Vector_impl" }
%"struct.std::_Vector_base<QuantLib::Parameter, std::allocator<QuantLib::Parameter>>::_Vector_impl" = type { %"struct.std::_Vector_base<QuantLib::Parameter, std::allocator<QuantLib::Parameter>>::_Vector_impl_data" }
%"struct.std::_Vector_base<QuantLib::Parameter, std::allocator<QuantLib::Parameter>>::_Vector_impl_data" = type { ptr, ptr, ptr }
%"class.boost::shared_ptr.34" = type { ptr, %"class.boost::detail::shared_count" }
%"class.QuantLib::AffineModel.base" = type { ptr }
%"class.QuantLib::Observer" = type { ptr, %"class.std::set" }

@.str.10 = private unnamed_addr constant [8 x i8] c"px != 0\00", align 1
@.str.11 = private unnamed_addr constant [102 x i8] c"generated/home/dtcxzyw/WorkSpace/SDK/vcpkg/installed/x64-linux/include/boost/smart_ptr/shared_ptr.hpp\00", align 1
@__PRETTY_FUNCTION__._ZNK5boost10shared_ptrIN8QuantLib9Parameter4ImplEEptEv = private unnamed_addr constant [147 x i8] c"typename boost::detail::sp_member_access<T>::type boost::shared_ptr<QuantLib::Parameter::Impl>::operator->() const [T = QuantLib::Parameter::Impl]\00", align 1

; Function Attrs: mustprogress uwtable
define linkonce_odr noundef ptr @_ZNK5boost10shared_ptrIN8QuantLib9Parameter4ImplEEptEv(ptr noundef nonnull align 8 dereferenceable(16) %this) #1 comdat align 2 {
entry:
  %this.addr = alloca ptr, align 8
  store ptr %this, ptr %this.addr, align 8, !tbaa !3
  %this1 = load ptr, ptr %this.addr, align 8
  %px = getelementptr inbounds nuw %"class.boost::shared_ptr.35", ptr %this1, i32 0, i32 0
  %0 = load ptr, ptr %px, align 8, !tbaa !102
  %cmp = icmp ne ptr %0, null
  %lnot = xor i1 %cmp, true
  %lnot2 = xor i1 %lnot, true
  %conv = zext i1 %lnot2 to i64
  %expval = call i64 @llvm.expect.i64(i64 %conv, i64 1)
  %tobool = icmp ne i64 %expval, 0
  br i1 %tobool, label %cond.true, label %cond.false

cond.true:                                        ; preds = %entry
  br label %cond.end

cond.false:                                       ; preds = %entry
  call void @_ZN5boost16assertion_failedEPKcS1_S1_l(ptr noundef @.str.10, ptr noundef @__PRETTY_FUNCTION__._ZNK5boost10shared_ptrIN8QuantLib9Parameter4ImplEEptEv, ptr noundef @.str.11, i64 noundef 784)
  br label %cond.end

cond.end:                                         ; preds = %cond.false, %cond.true
  %px3 = getelementptr inbounds nuw %"class.boost::shared_ptr.35", ptr %this1, i32 0, i32 0
  %1 = load ptr, ptr %px3, align 8, !tbaa !102
  ret ptr %1
}

; Function Attrs: mustprogress uwtable
define linkonce_odr noundef double @_ZNK8QuantLib9ParameterclEd(ptr noundef nonnull align 8 dereferenceable(48) %this, double noundef %t) #1 comdat align 2 {
entry:
  %this.addr = alloca ptr, align 8
  %t.addr = alloca double, align 8
  store ptr %this, ptr %this.addr, align 8, !tbaa !3
  store double %t, ptr %t.addr, align 8, !tbaa !11
  %this1 = load ptr, ptr %this.addr, align 8
  %impl_ = getelementptr inbounds nuw %"class.QuantLib::Parameter", ptr %this1, i32 0, i32 0
  %call = call noundef ptr @_ZNK5boost10shared_ptrIN8QuantLib9Parameter4ImplEEptEv(ptr noundef nonnull align 8 dereferenceable(16) %impl_)
  %params_ = getelementptr inbounds nuw %"class.QuantLib::Parameter", ptr %this1, i32 0, i32 1
  %0 = load double, ptr %t.addr, align 8, !tbaa !11
  %vtable = load ptr, ptr %call, align 8, !tbaa !7
  %vfn = getelementptr inbounds ptr, ptr %vtable, i64 2
  %1 = load ptr, ptr %vfn, align 8
  %call2 = call noundef double %1(ptr noundef nonnull align 8 dereferenceable(8) %call, ptr noundef nonnull align 8 dereferenceable(16) %params_, double noundef %0)
  ret double %call2
}

; Function Attrs: mustprogress uwtable
define linkonce_odr noundef double @_ZNK8QuantLib16CoxIngersollRoss5sigmaEv(ptr noundef nonnull align 8 dereferenceable(120) %this) #1 comdat align 2 {
entry:
  %this.addr = alloca ptr, align 8
  store ptr %this, ptr %this.addr, align 8, !tbaa !3
  %this1 = load ptr, ptr %this.addr, align 8
  %sigma_ = getelementptr inbounds nuw %"class.QuantLib::CoxIngersollRoss", ptr %this1, i32 0, i32 3
  %0 = load ptr, ptr %sigma_, align 8, !tbaa !47
  %call = call noundef double @_ZNK8QuantLib9ParameterclEd(ptr noundef nonnull align 8 dereferenceable(48) %0, double noundef 0.000000e+00)
  ret double %call
}

; Function Attrs: mustprogress uwtable
define linkonce_odr noundef double @_ZNK8QuantLib16CoxIngersollRoss1kEv(ptr noundef nonnull align 8 dereferenceable(120) %this) #1 comdat align 2 {
entry:
  %this.addr = alloca ptr, align 8
  store ptr %this, ptr %this.addr, align 8, !tbaa !3
  %this1 = load ptr, ptr %this.addr, align 8
  %k_ = getelementptr inbounds nuw %"class.QuantLib::CoxIngersollRoss", ptr %this1, i32 0, i32 2
  %0 = load ptr, ptr %k_, align 8, !tbaa !44
  %call = call noundef double @_ZNK8QuantLib9ParameterclEd(ptr noundef nonnull align 8 dereferenceable(48) %0, double noundef 0.000000e+00)
  ret double %call
}

; Function Attrs: mustprogress uwtable
define noundef double @_ZNK8QuantLib16CoxIngersollRoss1BEdd(ptr noundef nonnull align 8 dereferenceable(120) %this, double noundef %t, double noundef %T) unnamed_addr #1 align 2 {
entry:
  %this.addr = alloca ptr, align 8
  %t.addr = alloca double, align 8
  %T.addr = alloca double, align 8
  %h = alloca double, align 8
  %temp = alloca double, align 8
  %numerator = alloca double, align 8
  %denominator = alloca double, align 8
  %value = alloca double, align 8
  store ptr %this, ptr %this.addr, align 8, !tbaa !3
  store double %t, ptr %t.addr, align 8, !tbaa !11
  store double %T, ptr %T.addr, align 8, !tbaa !11
  %this1 = load ptr, ptr %this.addr, align 8
  call void @llvm.lifetime.start.p0(i64 8, ptr %h) #15
  %call = call noundef double @_ZNK8QuantLib16CoxIngersollRoss1kEv(ptr noundef nonnull align 8 dereferenceable(120) %this1)
  %call2 = call noundef double @_ZNK8QuantLib16CoxIngersollRoss1kEv(ptr noundef nonnull align 8 dereferenceable(120) %this1)
  %call3 = call noundef double @_ZNK8QuantLib16CoxIngersollRoss5sigmaEv(ptr noundef nonnull align 8 dereferenceable(120) %this1)
  %mul4 = fmul double 2.000000e+00, %call3
  %call5 = call noundef double @_ZNK8QuantLib16CoxIngersollRoss5sigmaEv(ptr noundef nonnull align 8 dereferenceable(120) %this1)
  %mul6 = fmul double %mul4, %call5
  %0 = call double @llvm.fmuladd.f64(double %call, double %call2, double %mul6)
  %call7 = call double @sqrt(double noundef %0) #15, !tbaa !52
  store double %call7, ptr %h, align 8, !tbaa !11
  call void @llvm.lifetime.start.p0(i64 8, ptr %temp) #15
  %1 = load double, ptr %T.addr, align 8, !tbaa !11
  %2 = load double, ptr %t.addr, align 8, !tbaa !11
  %sub = fsub double %1, %2
  %3 = load double, ptr %h, align 8, !tbaa !11
  %mul = fmul double %sub, %3
  %call8 = call double @exp(double noundef %mul) #15, !tbaa !52
  %sub9 = fsub double %call8, 1.000000e+00
  store double %sub9, ptr %temp, align 8, !tbaa !11
  call void @llvm.lifetime.start.p0(i64 8, ptr %numerator) #15
  %4 = load double, ptr %temp, align 8, !tbaa !11
  %mul10 = fmul double 2.000000e+00, %4
  store double %mul10, ptr %numerator, align 8, !tbaa !11
  call void @llvm.lifetime.start.p0(i64 8, ptr %denominator) #15
  %5 = load double, ptr %h, align 8, !tbaa !11
  %call12 = call noundef double @_ZNK8QuantLib16CoxIngersollRoss1kEv(ptr noundef nonnull align 8 dereferenceable(120) %this1)
  %6 = load double, ptr %h, align 8, !tbaa !11
  %add = fadd double %call12, %6
  %7 = load double, ptr %temp, align 8, !tbaa !11
  %mul13 = fmul double %add, %7
  %8 = call double @llvm.fmuladd.f64(double 2.000000e+00, double %5, double %mul13)
  store double %8, ptr %denominator, align 8, !tbaa !11
  call void @llvm.lifetime.start.p0(i64 8, ptr %value) #15
  %9 = load double, ptr %numerator, align 8, !tbaa !11
  %10 = load double, ptr %denominator, align 8, !tbaa !11
  %div = fdiv double %9, %10
  store double %div, ptr %value, align 8, !tbaa !11
  %11 = load double, ptr %value, align 8, !tbaa !11
  call void @llvm.lifetime.end.p0(i64 8, ptr %value) #15
  call void @llvm.lifetime.end.p0(i64 8, ptr %denominator) #15
  call void @llvm.lifetime.end.p0(i64 8, ptr %numerator) #15
  call void @llvm.lifetime.end.p0(i64 8, ptr %temp) #15
  call void @llvm.lifetime.end.p0(i64 8, ptr %h) #15
  ret double %11
}