; Function Attrs: mustprogress uwtable
define noundef double @_ZNK8QuantLib16CoxIngersollRoss1BEdd(ptr nocapture noundef nonnull readonly align 8 dereferenceable(120) %this, double noundef %t, double noundef %T) unnamed_addr #1 align 2 {
entry:
  %k_.i = getelementptr inbounds nuw i8, ptr %this, i64 96
  %0 = load ptr, ptr %k_.i, align 8, !tbaa !65
  %1 = load ptr, ptr %0, align 8, !tbaa !61
  %cmp.not.i.i.i = icmp eq ptr %1, null
  br i1 %cmp.not.i.i.i, label %cond.false.i.i.i, label %_ZNK8QuantLib16CoxIngersollRoss1kEv.exit, !prof !71

cond.false.i.i.i:                                 ; preds = %entry
  tail call void @_ZN5boost16assertion_failedEPKcS1_S1_l(ptr noundef nonnull @.str.10, ptr noundef nonnull @__PRETTY_FUNCTION__._ZNK5boost10shared_ptrIN8QuantLib9Parameter4ImplEEptEv, ptr noundef nonnull @.str.11, i64 noundef 784)
  %.pre.i.i.i = load ptr, ptr %0, align 8, !tbaa !61
  br label %_ZNK8QuantLib16CoxIngersollRoss1kEv.exit

_ZNK8QuantLib16CoxIngersollRoss1kEv.exit:         ; preds = %entry, %cond.false.i.i.i
  %2 = phi ptr [ %1, %entry ], [ %.pre.i.i.i, %cond.false.i.i.i ]
  %params_.i.i = getelementptr inbounds nuw i8, ptr %0, i64 16
  %vtable.i.i = load ptr, ptr %2, align 8, !tbaa !14
  %vfn.i.i = getelementptr inbounds i8, ptr %vtable.i.i, i64 16
  %3 = load ptr, ptr %vfn.i.i, align 8
  %call2.i.i = tail call noundef double %3(ptr noundef nonnull align 8 dereferenceable(8) %2, ptr noundef nonnull align 8 dereferenceable(16) %params_.i.i, double noundef 0.000000e+00)
  %4 = load ptr, ptr %k_.i, align 8, !tbaa !65
  %5 = load ptr, ptr %4, align 8, !tbaa !61
  %cmp.not.i.i.i5 = icmp eq ptr %5, null
  br i1 %cmp.not.i.i.i5, label %cond.false.i.i.i10, label %_ZNK8QuantLib16CoxIngersollRoss1kEv.exit12, !prof !71

cond.false.i.i.i10:                               ; preds = %_ZNK8QuantLib16CoxIngersollRoss1kEv.exit
  tail call void @_ZN5boost16assertion_failedEPKcS1_S1_l(ptr noundef nonnull @.str.10, ptr noundef nonnull @__PRETTY_FUNCTION__._ZNK5boost10shared_ptrIN8QuantLib9Parameter4ImplEEptEv, ptr noundef nonnull @.str.11, i64 noundef 784)
  %.pre.i.i.i11 = load ptr, ptr %4, align 8, !tbaa !61
  br label %_ZNK8QuantLib16CoxIngersollRoss1kEv.exit12

_ZNK8QuantLib16CoxIngersollRoss1kEv.exit12:       ; preds = %_ZNK8QuantLib16CoxIngersollRoss1kEv.exit, %cond.false.i.i.i10
  %6 = phi ptr [ %5, %_ZNK8QuantLib16CoxIngersollRoss1kEv.exit ], [ %.pre.i.i.i11, %cond.false.i.i.i10 ]
  %params_.i.i6 = getelementptr inbounds nuw i8, ptr %4, i64 16
  %vtable.i.i7 = load ptr, ptr %6, align 8, !tbaa !14
  %vfn.i.i8 = getelementptr inbounds i8, ptr %vtable.i.i7, i64 16
  %7 = load ptr, ptr %vfn.i.i8, align 8
  %call2.i.i9 = tail call noundef double %7(ptr noundef nonnull align 8 dereferenceable(8) %6, ptr noundef nonnull align 8 dereferenceable(16) %params_.i.i6, double noundef 0.000000e+00)
  %sigma_.i = getelementptr inbounds nuw i8, ptr %this, i64 104
  %8 = load ptr, ptr %sigma_.i, align 8, !tbaa !66
  %9 = load ptr, ptr %8, align 8, !tbaa !61
  %cmp.not.i.i.i13 = icmp eq ptr %9, null
  br i1 %cmp.not.i.i.i13, label %cond.false.i.i.i18, label %_ZNK8QuantLib16CoxIngersollRoss5sigmaEv.exit, !prof !71

cond.false.i.i.i18:                               ; preds = %_ZNK8QuantLib16CoxIngersollRoss1kEv.exit12
  tail call void @_ZN5boost16assertion_failedEPKcS1_S1_l(ptr noundef nonnull @.str.10, ptr noundef nonnull @__PRETTY_FUNCTION__._ZNK5boost10shared_ptrIN8QuantLib9Parameter4ImplEEptEv, ptr noundef nonnull @.str.11, i64 noundef 784)
  %.pre.i.i.i19 = load ptr, ptr %8, align 8, !tbaa !61
  br label %_ZNK8QuantLib16CoxIngersollRoss5sigmaEv.exit

_ZNK8QuantLib16CoxIngersollRoss5sigmaEv.exit:     ; preds = %_ZNK8QuantLib16CoxIngersollRoss1kEv.exit12, %cond.false.i.i.i18
  %10 = phi ptr [ %9, %_ZNK8QuantLib16CoxIngersollRoss1kEv.exit12 ], [ %.pre.i.i.i19, %cond.false.i.i.i18 ]
  %params_.i.i14 = getelementptr inbounds nuw i8, ptr %8, i64 16
  %vtable.i.i15 = load ptr, ptr %10, align 8, !tbaa !14
  %vfn.i.i16 = getelementptr inbounds i8, ptr %vtable.i.i15, i64 16
  %11 = load ptr, ptr %vfn.i.i16, align 8
  %call2.i.i17 = tail call noundef double %11(ptr noundef nonnull align 8 dereferenceable(8) %10, ptr noundef nonnull align 8 dereferenceable(16) %params_.i.i14, double noundef 0.000000e+00)
  %mul4 = fmul double %call2.i.i17, 2.000000e+00
  %12 = load ptr, ptr %sigma_.i, align 8, !tbaa !66
  %13 = load ptr, ptr %12, align 8, !tbaa !61
  %cmp.not.i.i.i21 = icmp eq ptr %13, null
  br i1 %cmp.not.i.i.i21, label %cond.false.i.i.i26, label %_ZNK8QuantLib16CoxIngersollRoss5sigmaEv.exit28, !prof !71

cond.false.i.i.i26:                               ; preds = %_ZNK8QuantLib16CoxIngersollRoss5sigmaEv.exit
  tail call void @_ZN5boost16assertion_failedEPKcS1_S1_l(ptr noundef nonnull @.str.10, ptr noundef nonnull @__PRETTY_FUNCTION__._ZNK5boost10shared_ptrIN8QuantLib9Parameter4ImplEEptEv, ptr noundef nonnull @.str.11, i64 noundef 784)
  %.pre.i.i.i27 = load ptr, ptr %12, align 8, !tbaa !61
  br label %_ZNK8QuantLib16CoxIngersollRoss5sigmaEv.exit28

_ZNK8QuantLib16CoxIngersollRoss5sigmaEv.exit28:   ; preds = %_ZNK8QuantLib16CoxIngersollRoss5sigmaEv.exit, %cond.false.i.i.i26
  %14 = phi ptr [ %13, %_ZNK8QuantLib16CoxIngersollRoss5sigmaEv.exit ], [ %.pre.i.i.i27, %cond.false.i.i.i26 ]
  %params_.i.i22 = getelementptr inbounds nuw i8, ptr %12, i64 16
  %vtable.i.i23 = load ptr, ptr %14, align 8, !tbaa !14
  %vfn.i.i24 = getelementptr inbounds i8, ptr %vtable.i.i23, i64 16
  %15 = load ptr, ptr %vfn.i.i24, align 8
  %call2.i.i25 = tail call noundef double %15(ptr noundef nonnull align 8 dereferenceable(8) %14, ptr noundef nonnull align 8 dereferenceable(16) %params_.i.i22, double noundef 0.000000e+00)
  %mul6 = fmul double %mul4, %call2.i.i25
  %16 = tail call double @llvm.fmuladd.f64(double %call2.i.i, double %call2.i.i9, double %mul6)
  %call7 = tail call double @sqrt(double noundef %16) #26, !tbaa !87
  %sub = fsub double %T, %t
  %mul = fmul double %sub, %call7
  %call8 = tail call double @exp(double noundef %mul) #26, !tbaa !87
  %17 = load ptr, ptr %k_.i, align 8, !tbaa !65
  %18 = load ptr, ptr %17, align 8, !tbaa !61
  %cmp.not.i.i.i30 = icmp eq ptr %18, null
  br i1 %cmp.not.i.i.i30, label %cond.false.i.i.i35, label %_ZNK8QuantLib16CoxIngersollRoss1kEv.exit37, !prof !71

cond.false.i.i.i35:                               ; preds = %_ZNK8QuantLib16CoxIngersollRoss5sigmaEv.exit28
  tail call void @_ZN5boost16assertion_failedEPKcS1_S1_l(ptr noundef nonnull @.str.10, ptr noundef nonnull @__PRETTY_FUNCTION__._ZNK5boost10shared_ptrIN8QuantLib9Parameter4ImplEEptEv, ptr noundef nonnull @.str.11, i64 noundef 784)
  %.pre.i.i.i36 = load ptr, ptr %17, align 8, !tbaa !61
  br label %_ZNK8QuantLib16CoxIngersollRoss1kEv.exit37

_ZNK8QuantLib16CoxIngersollRoss1kEv.exit37:       ; preds = %_ZNK8QuantLib16CoxIngersollRoss5sigmaEv.exit28, %cond.false.i.i.i35
  %19 = phi ptr [ %18, %_ZNK8QuantLib16CoxIngersollRoss5sigmaEv.exit28 ], [ %.pre.i.i.i36, %cond.false.i.i.i35 ]
  %sub9 = fadd double %call8, -1.000000e+00
  %mul10 = fmul double %sub9, 2.000000e+00
  %params_.i.i31 = getelementptr inbounds nuw i8, ptr %17, i64 16
  %vtable.i.i32 = load ptr, ptr %19, align 8, !tbaa !14
  %vfn.i.i33 = getelementptr inbounds i8, ptr %vtable.i.i32, i64 16
  %20 = load ptr, ptr %vfn.i.i33, align 8
  %call2.i.i34 = tail call noundef double %20(ptr noundef nonnull align 8 dereferenceable(8) %19, ptr noundef nonnull align 8 dereferenceable(16) %params_.i.i31, double noundef 0.000000e+00)
  %add = fadd double %call7, %call2.i.i34
  %mul13 = fmul double %sub9, %add
  %21 = tail call double @llvm.fmuladd.f64(double %call7, double 2.000000e+00, double %mul13)
  %div = fdiv double %mul10, %21
  ret double %div
}